; Function Attrs: null_pointer_is_valid sspstrong uwtable
define internal i32 @dissect_h245_T_returnedFunction(ptr noundef %0, i32 noundef %1, ptr noundef %2, ptr noundef %3, i32 noundef %4) #1 {
  %6 = alloca ptr, align 8
  %7 = alloca ptr, align 8
  call void @llvm.lifetime.start.p0(i64 8, ptr nonnull %6) #13
  store ptr null, ptr %6, align 8
  call void @llvm.lifetime.start.p0(i64 8, ptr nonnull %7) #13
  %8 = call i32 @dissect_per_octet_string(ptr noundef %0, i32 noundef %1, ptr noundef %2, ptr noundef %3, i32 noundef %4, i32 noundef -1, i32 noundef -1, i1 noundef zeroext false, ptr noundef nonnull %6)
  %9 = load ptr, ptr %6, align 8
  %.not = icmp eq ptr %9, null
  br i1 %.not, label %29, label %10

10:                                               ; preds = %5
  %11 = call i32 @tvb_reported_length(ptr noundef nonnull %9)
  %.not9 = icmp eq i32 %11, 0
  br i1 %.not9, label %29, label %12

12:                                               ; preds = %10
  %13 = load ptr, ptr @h245_pi, align 8
  store ptr null, ptr @h245_pi, align 8
  %14 = load ptr, ptr %6, align 8
  %15 = load i32, ptr @ett_h245_returnedFunction, align 4
  %16 = call ptr @proto_tree_add_subtree(ptr noundef %3, ptr noundef %14, i32 noundef 0, i32 noundef -1, i32 noundef %15, ptr noundef nonnull %7, ptr noundef nonnull @.str.3390)
  %17 = load ptr, ptr %7, align 8
  %.not.i = icmp eq ptr %17, null
  br i1 %.not.i, label %proto_item_set_generated.exit, label %18

18:                                               ; preds = %12
  %19 = getelementptr inbounds nuw i8, ptr %17, i64 40
  %20 = load ptr, ptr %19, align 8
  %.not5.i = icmp eq ptr %20, null
  br i1 %.not5.i, label %proto_item_set_generated.exit, label %21

21:                                               ; preds = %18
  %22 = getelementptr inbounds nuw i8, ptr %20, i64 28
  %23 = load i32, ptr %22, align 4
  %24 = or i32 %23, 2
  store i32 %24, ptr %22, align 4
  br label %proto_item_set_generated.exit

proto_item_set_generated.exit:                    ; preds = %12, %18, %21
  %25 = load ptr, ptr %6, align 8
  %26 = load i32, ptr @hf_h245_pdu_type, align 4
  %27 = load i32, ptr @ett_h245_MultimediaSystemControlMessage, align 4
  %28 = call i32 @dissect_per_choice(ptr noundef %25, i32 noundef 0, ptr noundef %2, ptr noundef %16, i32 noundef %26, i32 noundef %27, ptr noundef nonnull @MultimediaSystemControlMessage_choice, ptr noundef null)
  store ptr %13, ptr @h245_pi, align 8
  br label %29

29:                                               ; preds = %proto_item_set_generated.exit, %10, %5
  call void @llvm.lifetime.end.p0(i64 8, ptr nonnull %7) #13
  call void @llvm.lifetime.end.p0(i64 8, ptr nonnull %6) #13
  ret i32 %8
}